(lp0
ccopy_reg
_reconstructor
p1
(c__main__
Product
p2
c__builtin__
object
p3
Ntp4
Rp5
(dp6
S'price'
p7
F50.5
sS'name'
p8
S'apple'
p9
sS'quantity'
p10
I73
sbag1
(g2
g3
Ntp11
Rp12
(dp13
g7
F2.99
sg8
S'pear'
p14
sg10
I5
sba.